; Function Attrs: nounwind uwtable
define dso_local ptr @strbuf_join_argv(ptr noundef captures(none) %0, i32 noundef %1, ptr noundef readonly captures(none) %2, i8 noundef signext %3) local_unnamed_addr #3 {
  %.not = icmp eq i32 %1, 0
  br i1 %.not, label %.loopexit, label %5

5:                                                ; preds = %4
  %6 = load ptr, ptr %2, align 8, !tbaa !9
  %7 = tail call i64 @strlen(ptr noundef nonnull readonly dereferenceable(1) %6) #26
  tail call void @strbuf_add(ptr noundef %0, ptr noundef nonnull readonly %6, i64 noundef %7)
  %8 = add nsw i32 %1, -1
  %.not1415 = icmp eq i32 %8, 0
  br i1 %.not1415, label %.loopexit, label %.lr.ph

.lr.ph:                                           ; preds = %5
  %9 = getelementptr inbounds nuw i8, ptr %0, i64 8
  %10 = getelementptr inbounds nuw i8, ptr %0, i64 16
  br label %11

11:                                               ; preds = %.lr.ph, %strbuf_addch.exit
  %12 = phi i32 [ %8, %.lr.ph ], [ %38, %strbuf_addch.exit ]
  %.01016 = phi ptr [ %2, %.lr.ph ], [ %35, %strbuf_addch.exit ]
  %13 = load i64, ptr %0, align 8, !tbaa !15
  %.not.i.i = icmp eq i64 %13, 0
  %14 = load i64, ptr %9, align 8, !tbaa !16
  br i1 %.not.i.i, label %strbuf_avail.exit.thread.i, label %strbuf_avail.exit.i

strbuf_avail.exit.i:                              ; preds = %11
  %.neg.i = add i64 %14, 1
  %.not.i = icmp eq i64 %13, %.neg.i
  br i1 %.not.i, label %.thread.i, label %strbuf_addch.exit

strbuf_avail.exit.thread.i:                       ; preds = %11
  %15 = icmp ugt i64 %14, -3
  br i1 %15, label %17, label %18

.thread.i:                                        ; preds = %strbuf_avail.exit.i
  %16 = icmp ugt i64 %14, -3
  br i1 %16, label %17, label %.thread8.i

17:                                               ; preds = %.thread.i, %strbuf_avail.exit.thread.i
  tail call void (ptr, ...) @die(ptr noundef nonnull @.str) #24
  unreachable

18:                                               ; preds = %strbuf_avail.exit.thread.i
  store ptr null, ptr %10, align 8, !tbaa !12
  br label %.thread8.i

.thread8.i:                                       ; preds = %18, %.thread.i
  %19 = add nuw i64 %14, 2
  %20 = icmp ugt i64 %19, %13
  br i1 %20, label %21, label %strbuf_addch.exit

21:                                               ; preds = %.thread8.i
  %22 = mul i64 %13, 3
  %23 = add i64 %22, 48
  %24 = lshr i64 %23, 1
  %..i.i = tail call i64 @llvm.umax.i64(i64 %24, i64 %19)
  store i64 %..i.i, ptr %0, align 8, !tbaa !15
  %25 = load ptr, ptr %10, align 8, !tbaa !12
  %26 = tail call ptr @xrealloc(ptr noundef %25, i64 noundef %..i.i) #25
  store ptr %26, ptr %10, align 8, !tbaa !12
  br i1 %.not.i.i, label %27, label %strbuf_addch.exit

27:                                               ; preds = %21
  store i8 0, ptr %26, align 1, !tbaa !4
  br label %strbuf_addch.exit

strbuf_addch.exit:                                ; preds = %strbuf_avail.exit.i, %.thread8.i, %21, %27
  %28 = load ptr, ptr %10, align 8, !tbaa !12
  %29 = load i64, ptr %9, align 8, !tbaa !16
  %30 = add i64 %29, 1
  store i64 %30, ptr %9, align 8, !tbaa !16
  %31 = getelementptr inbounds nuw i8, ptr %28, i64 %29
  store i8 %3, ptr %31, align 1, !tbaa !4
  %32 = load ptr, ptr %10, align 8, !tbaa !12
  %33 = load i64, ptr %9, align 8, !tbaa !16
  %34 = getelementptr inbounds nuw i8, ptr %32, i64 %33
  store i8 0, ptr %34, align 1, !tbaa !4
  %35 = getelementptr inbounds nuw i8, ptr %.01016, i64 8
  %36 = load ptr, ptr %35, align 8, !tbaa !9
  %37 = tail call i64 @strlen(ptr noundef nonnull readonly dereferenceable(1) %36) #26
  tail call void @strbuf_add(ptr noundef nonnull %0, ptr noundef nonnull readonly %36, i64 noundef %37)
  %38 = add nsw i32 %12, -1
  %.not14 = icmp eq i32 %38, 0
  br i1 %.not14, label %.loopexit, label %11, !llvm.loop !35

.loopexit:                                        ; preds = %strbuf_addch.exit, %5, %4
  %.0.in = getelementptr inbounds nuw i8, ptr %0, i64 16
  %.0 = load ptr, ptr %.0.in, align 8, !tbaa !12
  ret ptr %.0
}